target datalayout = "e-m:e-p270:32:32-p271:32:32-p272:64:64-i64:64-i128:128-f80:128-n8:16:32:64-S128"
target triple = "x86_64-pc-linux-gnu"

%struct.KDF_PBKDF2 = type { ptr, ptr, i64, ptr, i64, i64, %struct.PROV_DIGEST, i32 }
%struct.PROV_DIGEST = type { ptr, ptr, ptr }

@.str = private unnamed_addr constant [51 x i8] c"../openssl/providers/implementations/kdfs/pbkdf2.c\00", align 1

; Function Attrs: nounwind uwtable
define internal void @kdf_pbkdf2_cleanup(ptr noundef %0) #0 {
  %2 = alloca ptr, align 8
  store ptr %0, ptr %2, align 8, !tbaa !3
  %3 = load ptr, ptr %2, align 8, !tbaa !3
  %4 = getelementptr inbounds nuw %struct.KDF_PBKDF2, ptr %3, i32 0, i32 6
  call void @ossl_prov_digest_reset(ptr noundef %4)
  %5 = load ptr, ptr %2, align 8, !tbaa !3
  %6 = getelementptr inbounds nuw %struct.KDF_PBKDF2, ptr %5, i32 0, i32 3
  %7 = load ptr, ptr %6, align 8, !tbaa !15
  call void @CRYPTO_free(ptr noundef %7, ptr noundef @.str, i32 noundef 99)
  %8 = load ptr, ptr %2, align 8, !tbaa !3
  %9 = getelementptr inbounds nuw %struct.KDF_PBKDF2, ptr %8, i32 0, i32 1
  %10 = load ptr, ptr %9, align 8, !tbaa !17
  %11 = load ptr, ptr %2, align 8, !tbaa !3
  %12 = getelementptr inbounds nuw %struct.KDF_PBKDF2, ptr %11, i32 0, i32 2
  %13 = load i64, ptr %12, align 8, !tbaa !18
  call void @CRYPTO_clear_free(ptr noundef %10, i64 noundef %13, ptr noundef @.str, i32 noundef 101)
  %14 = load ptr, ptr %2, align 8, !tbaa !3
  call void @llvm.memset.p0.i64(ptr align 8 %14, i8 0, i64 80, i1 false)
  ret void
}

; Function Attrs: nounwind uwtable
define internal void @kdf_pbkdf2_free(ptr noundef %0) #0 {
  %2 = alloca ptr, align 8
  %3 = alloca ptr, align 8
  store ptr %0, ptr %2, align 8, !tbaa !3
  call void @llvm.lifetime.start.p0(i64 8, ptr %3) #6
  %4 = load ptr, ptr %2, align 8, !tbaa !3
  store ptr %4, ptr %3, align 8, !tbaa !3
  %5 = load ptr, ptr %3, align 8, !tbaa !3
  %6 = icmp ne ptr %5, null
  br i1 %6, label %7, label %10

7:                                                ; preds = %1
  %8 = load ptr, ptr %3, align 8, !tbaa !3
  call void @kdf_pbkdf2_cleanup(ptr noundef %8)
  %9 = load ptr, ptr %3, align 8, !tbaa !3
  call void @CRYPTO_free(ptr noundef %9, ptr noundef @.str, i32 noundef 111)
  br label %10

10:                                               ; preds = %7, %1
  call void @llvm.lifetime.end.p0(i64 8, ptr %3) #6
  ret void
}

; Function Attrs: nounwind uwtable
define internal ptr @kdf_pbkdf2_new_no_init(ptr noundef %0) #0 {
  %2 = alloca ptr, align 8
  %3 = alloca ptr, align 8
  %4 = alloca ptr, align 8
  %5 = alloca i32, align 4
  store ptr %0, ptr %3, align 8, !tbaa !3
  call void @llvm.lifetime.start.p0(i64 8, ptr %4) #6
  %6 = call i32 @ossl_prov_is_running()
  %7 = icmp ne i32 %6, 0
  br i1 %7, label %9, label %8

8:                                                ; preds = %1
  store ptr null, ptr %2, align 8
  store i32 1, ptr %5, align 4
  br label %19

9:                                                ; preds = %1
  %10 = call noalias ptr @CRYPTO_zalloc(i64 noundef 80, ptr noundef @.str, i32 noundef 76)
  store ptr %10, ptr %4, align 8, !tbaa !3
  %11 = load ptr, ptr %4, align 8, !tbaa !3
  %12 = icmp eq ptr %11, null
  br i1 %12, label %13, label %14

13:                                               ; preds = %9
  store ptr null, ptr %2, align 8
  store i32 1, ptr %5, align 4
  br label %19

14:                                               ; preds = %9
  %15 = load ptr, ptr %3, align 8, !tbaa !3
  %16 = load ptr, ptr %4, align 8, !tbaa !3
  %17 = getelementptr inbounds nuw %struct.KDF_PBKDF2, ptr %16, i32 0, i32 0
  store ptr %15, ptr %17, align 8, !tbaa !7
  %18 = load ptr, ptr %4, align 8, !tbaa !3
  store ptr %18, ptr %2, align 8
  store i32 1, ptr %5, align 4
  br label %19

19:                                               ; preds = %14, %13, %8
  call void @llvm.lifetime.end.p0(i64 8, ptr %4) #6
  %20 = load ptr, ptr %2, align 8
  ret ptr %20
}

; Function Attrs: nounwind uwtable
define internal ptr @kdf_pbkdf2_dup(ptr noundef %0) #0 {
  %2 = alloca ptr, align 8
  %3 = alloca ptr, align 8
  %4 = alloca ptr, align 8
  %5 = alloca ptr, align 8
  %6 = alloca i32, align 4
  store ptr %0, ptr %3, align 8, !tbaa !3
  call void @llvm.lifetime.start.p0(i64 8, ptr %4) #6
  %7 = load ptr, ptr %3, align 8, !tbaa !3
  store ptr %7, ptr %4, align 8, !tbaa !3
  call void @llvm.lifetime.start.p0(i64 8, ptr %5) #6
  %8 = load ptr, ptr %4, align 8, !tbaa !3
  %9 = getelementptr inbounds nuw %struct.KDF_PBKDF2, ptr %8, i32 0, i32 0
  %10 = load ptr, ptr %9, align 8, !tbaa !7
  %11 = call ptr @kdf_pbkdf2_new_no_init(ptr noundef %10)
  store ptr %11, ptr %5, align 8, !tbaa !3
  %12 = load ptr, ptr %5, align 8, !tbaa !3
  %13 = icmp ne ptr %12, null
  br i1 %13, label %14, label %59

14:                                               ; preds = %1
  %15 = load ptr, ptr %4, align 8, !tbaa !3
  %16 = getelementptr inbounds nuw %struct.KDF_PBKDF2, ptr %15, i32 0, i32 3
  %17 = load ptr, ptr %16, align 8, !tbaa !15
  %18 = load ptr, ptr %4, align 8, !tbaa !3
  %19 = getelementptr inbounds nuw %struct.KDF_PBKDF2, ptr %18, i32 0, i32 4
  %20 = load i64, ptr %19, align 8, !tbaa !16
  %21 = load ptr, ptr %5, align 8, !tbaa !3
  %22 = getelementptr inbounds nuw %struct.KDF_PBKDF2, ptr %21, i32 0, i32 3
  %23 = load ptr, ptr %5, align 8, !tbaa !3
  %24 = getelementptr inbounds nuw %struct.KDF_PBKDF2, ptr %23, i32 0, i32 4
  %25 = call i32 @ossl_prov_memdup(ptr noundef %17, i64 noundef %20, ptr noundef %22, ptr noundef %24)
  %26 = icmp ne i32 %25, 0
  br i1 %26, label %27, label %47

27:                                               ; preds = %14
  %28 = load ptr, ptr %4, align 8, !tbaa !3
  %29 = getelementptr inbounds nuw %struct.KDF_PBKDF2, ptr %28, i32 0, i32 1
  %30 = load ptr, ptr %29, align 8, !tbaa !17
  %31 = load ptr, ptr %4, align 8, !tbaa !3
  %32 = getelementptr inbounds nuw %struct.KDF_PBKDF2, ptr %31, i32 0, i32 2
  %33 = load i64, ptr %32, align 8, !tbaa !18
  %34 = load ptr, ptr %5, align 8, !tbaa !3
  %35 = getelementptr inbounds nuw %struct.KDF_PBKDF2, ptr %34, i32 0, i32 1
  %36 = load ptr, ptr %5, align 8, !tbaa !3
  %37 = getelementptr inbounds nuw %struct.KDF_PBKDF2, ptr %36, i32 0, i32 2
  %38 = call i32 @ossl_prov_memdup(ptr noundef %30, i64 noundef %33, ptr noundef %35, ptr noundef %37)
  %39 = icmp ne i32 %38, 0
  br i1 %39, label %40, label %47

40:                                               ; preds = %27
  %41 = load ptr, ptr %5, align 8, !tbaa !3
  %42 = getelementptr inbounds nuw %struct.KDF_PBKDF2, ptr %41, i32 0, i32 6
  %43 = load ptr, ptr %4, align 8, !tbaa !3
  %44 = getelementptr inbounds nuw %struct.KDF_PBKDF2, ptr %43, i32 0, i32 6
  %45 = call i32 @ossl_prov_digest_copy(ptr noundef %42, ptr noundef %44)
  %46 = icmp ne i32 %45, 0
  br i1 %46, label %48, label %47

47:                                               ; preds = %40, %27, %14
  br label %61

48:                                               ; preds = %40
  %49 = load ptr, ptr %4, align 8, !tbaa !3
  %50 = getelementptr inbounds nuw %struct.KDF_PBKDF2, ptr %49, i32 0, i32 5
  %51 = load i64, ptr %50, align 8, !tbaa !19
  %52 = load ptr, ptr %5, align 8, !tbaa !3
  %53 = getelementptr inbounds nuw %struct.KDF_PBKDF2, ptr %52, i32 0, i32 5
  store i64 %51, ptr %53, align 8, !tbaa !19
  %54 = load ptr, ptr %4, align 8, !tbaa !3
  %55 = getelementptr inbounds nuw %struct.KDF_PBKDF2, ptr %54, i32 0, i32 7
  %56 = load i32, ptr %55, align 8, !tbaa !20
  %57 = load ptr, ptr %5, align 8, !tbaa !3
  %58 = getelementptr inbounds nuw %struct.KDF_PBKDF2, ptr %57, i32 0, i32 7
  store i32 %56, ptr %58, align 8, !tbaa !20
  br label %59

59:                                               ; preds = %48, %1
  %60 = load ptr, ptr %5, align 8, !tbaa !3
  store ptr %60, ptr %2, align 8
  store i32 1, ptr %6, align 4
  br label %63

61:                                               ; preds = %47
  %62 = load ptr, ptr %5, align 8, !tbaa !3
  call void @kdf_pbkdf2_free(ptr noundef %62)
  store ptr null, ptr %2, align 8
  store i32 1, ptr %6, align 4
  br label %63

63:                                               ; preds = %61, %59
  call void @llvm.lifetime.end.p0(i64 8, ptr %5) #6
  call void @llvm.lifetime.end.p0(i64 8, ptr %4) #6
  %64 = load ptr, ptr %2, align 8
  ret ptr %64
}