; Function Attrs: nounwind uwtable
define internal ptr @kdf_pbkdf2_dup(ptr noundef %0) #0 {
  %2 = load ptr, ptr %0, align 8, !tbaa !3
  %3 = tail call i32 @ossl_prov_is_running() #7
  %.not.i = icmp eq i32 %3, 0
  br i1 %.not.i, label %kdf_pbkdf2_new_no_init.exit.thread, label %4

4:                                                ; preds = %1
  %5 = tail call noalias ptr @CRYPTO_zalloc(i64 noundef 80, ptr noundef nonnull @.str, i32 noundef 76) #7
  %6 = icmp eq ptr %5, null
  br i1 %6, label %kdf_pbkdf2_new_no_init.exit.thread, label %7

7:                                                ; preds = %4
  store ptr %2, ptr %5, align 8, !tbaa !3
  %8 = getelementptr inbounds nuw i8, ptr %0, i64 24
  %9 = load ptr, ptr %8, align 8, !tbaa !17
  %10 = getelementptr inbounds nuw i8, ptr %0, i64 32
  %11 = load i64, ptr %10, align 8, !tbaa !18
  %12 = getelementptr inbounds nuw i8, ptr %5, i64 24
  %13 = getelementptr inbounds nuw i8, ptr %5, i64 32
  %14 = tail call i32 @ossl_prov_memdup(ptr noundef %9, i64 noundef %11, ptr noundef nonnull %12, ptr noundef nonnull %13) #7
  %.not21 = icmp eq i32 %14, 0
  br i1 %.not21, label %kdf_pbkdf2_free.exit, label %15

15:                                               ; preds = %7
  %16 = getelementptr inbounds nuw i8, ptr %0, i64 8
  %17 = load ptr, ptr %16, align 8, !tbaa !19
  %18 = getelementptr inbounds nuw i8, ptr %0, i64 16
  %19 = load i64, ptr %18, align 8, !tbaa !20
  %20 = getelementptr inbounds nuw i8, ptr %5, i64 8
  %21 = getelementptr inbounds nuw i8, ptr %5, i64 16
  %22 = tail call i32 @ossl_prov_memdup(ptr noundef %17, i64 noundef %19, ptr noundef nonnull %20, ptr noundef nonnull %21) #7
  %.not22 = icmp eq i32 %22, 0
  br i1 %.not22, label %kdf_pbkdf2_free.exit, label %23

23:                                               ; preds = %15
  %24 = getelementptr inbounds nuw i8, ptr %5, i64 48
  %25 = getelementptr inbounds nuw i8, ptr %0, i64 48
  %26 = tail call i32 @ossl_prov_digest_copy(ptr noundef nonnull %24, ptr noundef nonnull %25) #7
  %.not23 = icmp eq i32 %26, 0
  br i1 %.not23, label %kdf_pbkdf2_free.exit, label %27

27:                                               ; preds = %23
  %28 = getelementptr inbounds nuw i8, ptr %0, i64 40
  %29 = load i64, ptr %28, align 8, !tbaa !14
  %30 = getelementptr inbounds nuw i8, ptr %5, i64 40
  store i64 %29, ptr %30, align 8, !tbaa !14
  %31 = getelementptr inbounds nuw i8, ptr %0, i64 72
  %32 = load i32, ptr %31, align 8, !tbaa !16
  %33 = getelementptr inbounds nuw i8, ptr %5, i64 72
  store i32 %32, ptr %33, align 8, !tbaa !16
  br label %kdf_pbkdf2_new_no_init.exit.thread

kdf_pbkdf2_free.exit:                             ; preds = %7, %15, %23
  %34 = getelementptr inbounds nuw i8, ptr %5, i64 48
  tail call void @ossl_prov_digest_reset(ptr noundef nonnull %34) #7
  %35 = load ptr, ptr %12, align 8, !tbaa !17
  tail call void @CRYPTO_free(ptr noundef %35, ptr noundef nonnull @.str, i32 noundef 99) #7
  %36 = getelementptr inbounds nuw i8, ptr %5, i64 8
  %37 = load ptr, ptr %36, align 8, !tbaa !19
  %38 = getelementptr inbounds nuw i8, ptr %5, i64 16
  %39 = load i64, ptr %38, align 8, !tbaa !20
  tail call void @CRYPTO_clear_free(ptr noundef %37, i64 noundef %39, ptr noundef nonnull @.str, i32 noundef 101) #7
  tail call void @llvm.memset.p0.i64(ptr noundef nonnull align 8 dereferenceable(80) %5, i8 0, i64 80, i1 false)
  tail call void @CRYPTO_free(ptr noundef nonnull %5, ptr noundef nonnull @.str, i32 noundef 111) #7
  br label %kdf_pbkdf2_new_no_init.exit.thread

kdf_pbkdf2_new_no_init.exit.thread:               ; preds = %4, %1, %27, %kdf_pbkdf2_free.exit
  %.0 = phi ptr [ null, %kdf_pbkdf2_free.exit ], [ %5, %27 ], [ null, %1 ], [ null, %4 ]
  ret ptr %.0
}